(lp0
(S'elfflags'
p1
ccopy_reg
_reconstructor
p2
(cino.utils
SpaceList
p3
c__builtin__
list
p4
(lp5
S'-Os'
p6
aS'-Wl,--gc-sections'
p7
aS'-mmcu=atmega2560'
p8
atp9
Rp10
tp11
a(S'version.txt'
p12
S'/usr/share/arduino/lib/version.txt'
p13
tp14
a(S'used_libs'
p15
(lp16
S'/usr/share/arduino/hardware/arduino/cores/arduino'
p17
atp18
a(S'cc'
p19
S'/usr/lib64/ccache/avr-gcc'
p20
tp21
a(S'stty'
p22
S'/usr/bin/stty'
p23
tp24
a(S'avrdude.conf'
p25
S'/usr/local/share/arduino/hardware/tools/avrdude.conf'
p26
tp27
a(S'cflags'
p28
g2
(g3
g4
(lp29
g8
aS'-ffunction-sections'
p30
aS'-fdata-sections'
p31
aS'-g'
p32
ag6
aS'-w'
p33
aS'-DF_CPU=16000000L'
p34
aS'-DARDUINO=100'
p35
aS'-I/usr/share/arduino/hardware/arduino/cores/arduino'
p36
aS'-I/usr/share/arduino/hardware/arduino/variants/mega'
p37
aS'-I/usr/share/arduino/hardware/arduino/cores/arduino'
p38
atp39
Rp40
tp41
a(S'build_dir'
p42
S'.build/mega2560'
p43
tp44
a(S'arduino_core_dir'
p45
g17
tp46
a(S'boards.txt'
p47
S'/usr/share/arduino/hardware/arduino/boards.txt'
p48
tp49
a(S'cxxflags'
p50
g2
(g3
g4
(lp51
S'-fno-exceptions'
p52
atp53
Rp54
tp55
a(S'arduino_variants_dir'
p56
S'/usr/share/arduino/hardware/arduino/variants'
p57
tp58
a(S'avrdude'
p59
S'/usr/bin/avrdude'
p60
tp61
a(S'ar'
p62
S'/usr/bin/avr-ar'
p63
tp64
a(S'names'
p65
(dp66
S'cpp'
p67
S'%s.cpp'
p68
sS'obj'
p69
S'%s.o'
p70
sS'lib'
p71
S'lib%s.a'
p72
sS'deps'
p73
S'%s.d'
p74
stp75
a(g73
g2
(g3
g4
(lp76
S'.build/mega2560/src/dependencies.d'
p77
aS'.build/mega2560/arduino/dependencies.d'
p78
atp79
Rp80
tp81
a(S'arduino_libraries_dir'
p82
S'/usr/share/arduino/libraries'
p83
tp84
a(S'arduino_lib_version'
p85
g2
(cino.environment
Version
p86
c__builtin__
tuple
p87
(I1
I0
tp88
tp89
Rp90
tp91
a(S'objcopy'
p92
S'/usr/bin/avr-objcopy'
p93
tp94
a(S'board_models'
p95
cino.environment
BoardModels
p96
((lp97
(lp98
S'uno'
p99
a(dp100
S'bootloader'
p101
(dp102
S'extended_fuses'
p103
S'0x05'
p104
sS'high_fuses'
p105
S'0xde'
p106
sS'low_fuses'
p107
S'0xff'
p108
sS'lock_bits'
p109
S'0x0F'
p110
sS'file'
p111
S'optiboot_atmega328.hex'
p112
sS'path'
p113
S'optiboot'
p114
sS'unlock_bits'
p115
S'0x3F'
p116
ssS'upload'
p117
(dp118
S'protocol'
p119
S'arduino'
p120
sS'maximum_size'
p121
S'32256'
p122
sS'speed'
p123
S'115200'
p124
ssS'build'
p125
(dp126
S'core'
p127
S'arduino'
p128
sS'mcu'
p129
S'atmega328p'
p130
sS'f_cpu'
p131
S'16000000L'
p132
sS'variant'
p133
S'standard'
p134
ssS'name'
p135
S'Arduino Uno'
p136
saa(lp137
S'atmega328'
p138
a(dp139
S'bootloader'
p140
(dp141
S'extended_fuses'
p142
S'0x05'
p143
sS'high_fuses'
p144
S'0xDA'
p145
sS'low_fuses'
p146
S'0xFF'
p147
sS'lock_bits'
p148
S'0x0F'
p149
sS'file'
p150
S'ATmegaBOOT_168_atmega328.hex'
p151
sS'path'
p152
S'atmega'
p153
sS'unlock_bits'
p154
S'0x3F'
p155
ssS'upload'
p156
(dp157
S'protocol'
p158
S'arduino'
p159
sS'maximum_size'
p160
S'30720'
p161
sS'speed'
p162
S'57600'
p163
ssS'build'
p164
(dp165
S'core'
p166
S'arduino'
p167
sS'mcu'
p168
S'atmega328p'
p169
sS'f_cpu'
p170
S'16000000L'
p171
sS'variant'
p172
S'standard'
p173
ssS'name'
p174
S'Arduino Duemilanove w/ ATmega328'
p175
saa(lp176
S'diecimila'
p177
a(dp178
S'bootloader'
p179
(dp180
S'extended_fuses'
p181
S'0x00'
p182
sS'high_fuses'
p183
S'0xdd'
p184
sS'low_fuses'
p185
S'0xff'
p186
sS'lock_bits'
p187
S'0x0F'
p188
sS'file'
p189
S'ATmegaBOOT_168_diecimila.hex'
p190
sS'path'
p191
S'atmega'
p192
sS'unlock_bits'
p193
S'0x3F'
p194
ssS'upload'
p195
(dp196
S'protocol'
p197
S'arduino'
p198
sS'maximum_size'
p199
S'14336'
p200
sS'speed'
p201
S'19200'
p202
ssS'build'
p203
(dp204
S'core'
p205
S'arduino'
p206
sS'mcu'
p207
S'atmega168'
p208
sS'f_cpu'
p209
S'16000000L'
p210
sS'variant'
p211
S'standard'
p212
ssS'name'
p213
S'Arduino Diecimila or Duemilanove w/ ATmega168'
p214
saa(lp215
S'nano328'
p216
a(dp217
S'bootloader'
p218
(dp219
S'extended_fuses'
p220
S'0x05'
p221
sS'high_fuses'
p222
S'0xDA'
p223
sS'low_fuses'
p224
S'0xFF'
p225
sS'lock_bits'
p226
S'0x0F'
p227
sS'file'
p228
S'ATmegaBOOT_168_atmega328.hex'
p229
sS'path'
p230
S'atmega'
p231
sS'unlock_bits'
p232
S'0x3F'
p233
ssS'upload'
p234
(dp235
S'protocol'
p236
S'arduino'
p237
sS'maximum_size'
p238
S'30720'
p239
sS'speed'
p240
S'57600'
p241
ssS'build'
p242
(dp243
S'core'
p244
S'arduino'
p245
sS'mcu'
p246
S'atmega328p'
p247
sS'f_cpu'
p248
S'16000000L'
p249
sS'variant'
p250
S'eightanaloginputs'
p251
ssS'name'
p252
S'Arduino Nano w/ ATmega328'
p253
saa(lp254
S'nano'
p255
a(dp256
S'bootloader'
p257
(dp258
S'extended_fuses'
p259
S'0x00'
p260
sS'high_fuses'
p261
S'0xdd'
p262
sS'low_fuses'
p263
S'0xff'
p264
sS'lock_bits'
p265
S'0x0F'
p266
sS'file'
p267
S'ATmegaBOOT_168_diecimila.hex'
p268
sS'path'
p269
S'atmega'
p270
sS'unlock_bits'
p271
S'0x3F'
p272
ssS'upload'
p273
(dp274
S'protocol'
p275
S'arduino'
p276
sS'maximum_size'
p277
S'14336'
p278
sS'speed'
p279
S'19200'
p280
ssS'build'
p281
(dp282
S'core'
p283
S'arduino'
p284
sS'mcu'
p285
S'atmega168'
p286
sS'f_cpu'
p287
S'16000000L'
p288
sS'variant'
p289
S'eightanaloginputs'
p290
ssS'name'
p291
S'Arduino Nano w/ ATmega168'
p292
saa(lp293
S'mega2560'
p294
a(dp295
S'bootloader'
p296
(dp297
S'extended_fuses'
p298
S'0xFD'
p299
sS'high_fuses'
p300
S'0xD8'
p301
sS'low_fuses'
p302
S'0xFF'
p303
sS'lock_bits'
p304
S'0x0F'
p305
sS'file'
p306
S'stk500boot_v2_mega2560.hex'
p307
sS'path'
p308
S'stk500v2'
p309
sS'unlock_bits'
p310
S'0x3F'
p311
ssS'upload'
p312
(dp313
S'protocol'
p314
S'stk500v2'
p315
sS'maximum_size'
p316
S'258048'
p317
sS'speed'
p318
S'115200'
p319
ssS'build'
p320
(dp321
S'core'
p322
S'arduino'
p323
sS'mcu'
p324
S'atmega2560'
p325
sS'f_cpu'
p326
S'16000000L'
p327
sS'variant'
p328
S'mega'
p329
ssS'name'
p330
S'Arduino Mega 2560 or Mega ADK'
p331
saa(lp332
S'mega'
p333
a(dp334
S'bootloader'
p335
(dp336
S'extended_fuses'
p337
S'0xF5'
p338
sS'high_fuses'
p339
S'0xDA'
p340
sS'low_fuses'
p341
S'0xFF'
p342
sS'lock_bits'
p343
S'0x0F'
p344
sS'file'
p345
S'ATmegaBOOT_168_atmega1280.hex'
p346
sS'path'
p347
S'atmega'
p348
sS'unlock_bits'
p349
S'0x3F'
p350
ssS'upload'
p351
(dp352
S'protocol'
p353
S'arduino'
p354
sS'maximum_size'
p355
S'126976'
p356
sS'speed'
p357
S'57600'
p358
ssS'build'
p359
(dp360
S'core'
p361
S'arduino'
p362
sS'mcu'
p363
S'atmega1280'
p364
sS'f_cpu'
p365
S'16000000L'
p366
sS'variant'
p367
S'mega'
p368
ssS'name'
p369
S'Arduino Mega (ATmega1280)'
p370
saa(lp371
S'leonardo'
p372
a(dp373
S'bootloader'
p374
(dp375
S'extended_fuses'
p376
S'0xcb'
p377
sS'high_fuses'
p378
S'0xd8'
p379
sS'low_fuses'
p380
S'0xff'
p381
sS'lock_bits'
p382
S'0x2F'
p383
sS'file'
p384
S'Caterina-Leonardo.hex'
p385
sS'path'
p386
S'caterina'
p387
sS'unlock_bits'
p388
S'0x3F'
p389
ssS'upload'
p390
(dp391
S'protocol'
p392
S'avr109'
p393
sS'maximum_size'
p394
S'28672'
p395
sS'speed'
p396
S'57600'
p397
sS'disable_flushing'
p398
S'true'
p399
ssS'build'
p400
(dp401
S'core'
p402
S'arduino'
p403
sS'f_cpu'
p404
S'16000000L'
p405
sS'vid'
p406
S'0x2341'
p407
sS'pid'
p408
S'0x8036'
p409
sS'variant'
p410
S'leonardo'
p411
sS'mcu'
p412
S'atmega32u4'
p413
ssS'name'
p414
S'Arduino Leonardo'
p415
saa(lp416
S'mini328'
p417
a(dp418
S'bootloader'
p419
(dp420
S'extended_fuses'
p421
S'0x05'
p422
sS'high_fuses'
p423
S'0xd8'
p424
sS'low_fuses'
p425
S'0xff'
p426
sS'lock_bits'
p427
S'0x0F'
p428
sS'file'
p429
S'optiboot_atmega328-Mini.hex'
p430
sS'path'
p431
S'optiboot'
p432
sS'unlock_bits'
p433
S'0x3F'
p434
ssS'upload'
p435
(dp436
S'protocol'
p437
S'arduino'
p438
sS'maximum_size'
p439
S'28672'
p440
sS'speed'
p441
S'115200'
p442
ssS'build'
p443
(dp444
S'core'
p445
S'arduino'
p446
sS'mcu'
p447
S'atmega328p'
p448
sS'f_cpu'
p449
S'16000000L'
p450
sS'variant'
p451
S'eightanaloginputs'
p452
ssS'name'
p453
S'Arduino Mini w/ ATmega328'
p454
saa(lp455
S'mini'
p456
a(dp457
S'bootloader'
p458
(dp459
S'extended_fuses'
p460
S'0x00'
p461
sS'high_fuses'
p462
S'0xdd'
p463
sS'low_fuses'
p464
S'0xff'
p465
sS'lock_bits'
p466
S'0x0F'
p467
sS'file'
p468
S'ATmegaBOOT_168_ng.hex'
p469
sS'path'
p470
S'atmega'
p471
sS'unlock_bits'
p472
S'0x3F'
p473
ssS'upload'
p474
(dp475
S'protocol'
p476
S'arduino'
p477
sS'maximum_size'
p478
S'14336'
p479
sS'speed'
p480
S'19200'
p481
ssS'build'
p482
(dp483
S'core'
p484
S'arduino'
p485
sS'mcu'
p486
S'atmega168'
p487
sS'f_cpu'
p488
S'16000000L'
p489
sS'variant'
p490
S'eightanaloginputs'
p491
ssS'name'
p492
S'Arduino Mini w/ ATmega168'
p493
saa(lp494
S'ethernet'
p495
a(dp496
S'bootloader'
p497
(dp498
S'extended_fuses'
p499
S'0x05'
p500
sS'high_fuses'
p501
S'0xde'
p502
sS'low_fuses'
p503
S'0xff'
p504
sS'lock_bits'
p505
S'0x0F'
p506
sS'file'
p507
S'optiboot_atmega328.hex'
p508
sS'path'
p509
S'optiboot'
p510
sS'unlock_bits'
p511
S'0x3F'
p512
ssS'upload'
p513
(dp514
S'protocol'
p515
S'arduino'
p516
sS'maximum_size'
p517
S'32256'
p518
sS'speed'
p519
S'115200'
p520
ssS'build'
p521
(dp522
S'variant'
p523
S'standard'
p524
sS'mcu'
p525
S'atmega328p'
p526
sS'f_cpu'
p527
S'16000000L'
p528
sS'core'
p529
S'arduino'
p530
ssS'name'
p531
S'Arduino Ethernet'
p532
saa(lp533
S'fio'
p534
a(dp535
S'bootloader'
p536
(dp537
S'extended_fuses'
p538
S'0x05'
p539
sS'high_fuses'
p540
S'0xDA'
p541
sS'low_fuses'
p542
S'0xFF'
p543
sS'lock_bits'
p544
S'0x0F'
p545
sS'file'
p546
S'ATmegaBOOT_168_atmega328_pro_8MHz.hex'
p547
sS'path'
p548
S'arduino:atmega'
p549
sS'unlock_bits'
p550
S'0x3F'
p551
ssS'upload'
p552
(dp553
S'protocol'
p554
S'arduino'
p555
sS'maximum_size'
p556
S'30720'
p557
sS'speed'
p558
S'57600'
p559
ssS'build'
p560
(dp561
S'core'
p562
S'arduino'
p563
sS'mcu'
p564
S'atmega328p'
p565
sS'f_cpu'
p566
S'8000000L'
p567
sS'variant'
p568
S'eightanaloginputs'
p569
ssS'name'
p570
S'Arduino Fio'
p571
saa(lp572
S'bt328'
p573
a(dp574
S'bootloader'
p575
(dp576
S'extended_fuses'
p577
S'0x05'
p578
sS'high_fuses'
p579
S'0xd8'
p580
sS'low_fuses'
p581
S'0xff'
p582
sS'lock_bits'
p583
S'0x0F'
p584
sS'file'
p585
S'ATmegaBOOT_168_atmega328_bt.hex'
p586
sS'path'
p587
S'bt'
p588
sS'unlock_bits'
p589
S'0x3F'
p590
ssS'upload'
p591
(dp592
S'protocol'
p593
S'arduino'
p594
sS'maximum_size'
p595
S'28672'
p596
sS'speed'
p597
S'19200'
p598
sS'disable_flushing'
p599
S'true'
p600
ssS'build'
p601
(dp602
S'core'
p603
S'arduino'
p604
sS'mcu'
p605
S'atmega328p'
p606
sS'f_cpu'
p607
S'16000000L'
p608
sS'variant'
p609
S'eightanaloginputs'
p610
ssS'name'
p611
S'Arduino BT w/ ATmega328'
p612
saa(lp613
S'bt'
p614
a(dp615
S'bootloader'
p616
(dp617
S'extended_fuses'
p618
S'0x00'
p619
sS'high_fuses'
p620
S'0xdd'
p621
sS'low_fuses'
p622
S'0xff'
p623
sS'lock_bits'
p624
S'0x0F'
p625
sS'file'
p626
S'ATmegaBOOT_168.hex'
p627
sS'path'
p628
S'bt'
p629
sS'unlock_bits'
p630
S'0x3F'
p631
ssS'upload'
p632
(dp633
S'protocol'
p634
S'arduino'
p635
sS'maximum_size'
p636
S'14336'
p637
sS'speed'
p638
S'19200'
p639
sS'disable_flushing'
p640
S'true'
p641
ssS'build'
p642
(dp643
S'core'
p644
S'arduino'
p645
sS'mcu'
p646
S'atmega168'
p647
sS'f_cpu'
p648
S'16000000L'
p649
sS'variant'
p650
S'eightanaloginputs'
p651
ssS'name'
p652
S'Arduino BT w/ ATmega168'
p653
saa(lp654
S'lilypad328'
p655
a(dp656
S'bootloader'
p657
(dp658
S'extended_fuses'
p659
S'0x05'
p660
sS'high_fuses'
p661
S'0xDA'
p662
sS'low_fuses'
p663
S'0xFF'
p664
sS'lock_bits'
p665
S'0x0F'
p666
sS'file'
p667
S'ATmegaBOOT_168_atmega328_pro_8MHz.hex'
p668
sS'path'
p669
S'atmega'
p670
sS'unlock_bits'
p671
S'0x3F'
p672
ssS'upload'
p673
(dp674
S'protocol'
p675
S'arduino'
p676
sS'maximum_size'
p677
S'30720'
p678
sS'speed'
p679
S'57600'
p680
ssS'build'
p681
(dp682
S'core'
p683
S'arduino'
p684
sS'mcu'
p685
S'atmega328p'
p686
sS'f_cpu'
p687
S'8000000L'
p688
sS'variant'
p689
S'standard'
p690
ssS'name'
p691
S'LilyPad Arduino w/ ATmega328'
p692
saa(lp693
S'lilypad'
p694
a(dp695
S'bootloader'
p696
(dp697
S'extended_fuses'
p698
S'0x00'
p699
sS'high_fuses'
p700
S'0xdd'
p701
sS'low_fuses'
p702
S'0xe2'
p703
sS'lock_bits'
p704
S'0x0F'
p705
sS'file'
p706
S'LilyPadBOOT_168.hex'
p707
sS'path'
p708
S'lilypad'
p709
sS'unlock_bits'
p710
S'0x3F'
p711
ssS'upload'
p712
(dp713
S'protocol'
p714
S'arduino'
p715
sS'maximum_size'
p716
S'14336'
p717
sS'speed'
p718
S'19200'
p719
ssS'build'
p720
(dp721
S'core'
p722
S'arduino'
p723
sS'mcu'
p724
S'atmega168'
p725
sS'f_cpu'
p726
S'8000000L'
p727
sS'variant'
p728
S'standard'
p729
ssS'name'
p730
S'LilyPad Arduino w/ ATmega168'
p731
saa(lp732
S'pro5v328'
p733
a(dp734
S'bootloader'
p735
(dp736
S'extended_fuses'
p737
S'0x05'
p738
sS'high_fuses'
p739
S'0xDA'
p740
sS'low_fuses'
p741
S'0xFF'
p742
sS'lock_bits'
p743
S'0x0F'
p744
sS'file'
p745
S'ATmegaBOOT_168_atmega328.hex'
p746
sS'path'
p747
S'atmega'
p748
sS'unlock_bits'
p749
S'0x3F'
p750
ssS'upload'
p751
(dp752
S'protocol'
p753
S'arduino'
p754
sS'maximum_size'
p755
S'30720'
p756
sS'speed'
p757
S'57600'
p758
ssS'build'
p759
(dp760
S'core'
p761
S'arduino'
p762
sS'mcu'
p763
S'atmega328p'
p764
sS'f_cpu'
p765
S'16000000L'
p766
sS'variant'
p767
S'standard'
p768
ssS'name'
p769
S'Arduino Pro or Pro Mini (5V, 16 MHz) w/ ATmega328'
p770
saa(lp771
S'pro5v'
p772
a(dp773
S'bootloader'
p774
(dp775
S'extended_fuses'
p776
S'0x00'
p777
sS'high_fuses'
p778
S'0xdd'
p779
sS'low_fuses'
p780
S'0xff'
p781
sS'lock_bits'
p782
S'0x0F'
p783
sS'file'
p784
S'ATmegaBOOT_168_diecimila.hex'
p785
sS'path'
p786
S'atmega'
p787
sS'unlock_bits'
p788
S'0x3F'
p789
ssS'upload'
p790
(dp791
S'protocol'
p792
S'arduino'
p793
sS'maximum_size'
p794
S'14336'
p795
sS'speed'
p796
S'19200'
p797
ssS'build'
p798
(dp799
S'core'
p800
S'arduino'
p801
sS'mcu'
p802
S'atmega168'
p803
sS'f_cpu'
p804
S'16000000L'
p805
sS'variant'
p806
S'standard'
p807
ssS'name'
p808
S'Arduino Pro or Pro Mini (5V, 16 MHz) w/ ATmega168'
p809
saa(lp810
S'pro328'
p811
a(dp812
S'bootloader'
p813
(dp814
S'extended_fuses'
p815
S'0x05'
p816
sS'high_fuses'
p817
S'0xDA'
p818
sS'low_fuses'
p819
S'0xFF'
p820
sS'lock_bits'
p821
S'0x0F'
p822
sS'file'
p823
S'ATmegaBOOT_168_atmega328_pro_8MHz.hex'
p824
sS'path'
p825
S'atmega'
p826
sS'unlock_bits'
p827
S'0x3F'
p828
ssS'upload'
p829
(dp830
S'protocol'
p831
S'arduino'
p832
sS'maximum_size'
p833
S'30720'
p834
sS'speed'
p835
S'57600'
p836
ssS'build'
p837
(dp838
S'core'
p839
S'arduino'
p840
sS'mcu'
p841
S'atmega328p'
p842
sS'f_cpu'
p843
S'8000000L'
p844
sS'variant'
p845
S'standard'
p846
ssS'name'
p847
S'Arduino Pro or Pro Mini (3.3V, 8 MHz) w/ ATmega328'
p848
saa(lp849
S'pro'
p850
a(dp851
S'bootloader'
p852
(dp853
S'extended_fuses'
p854
S'0x00'
p855
sS'high_fuses'
p856
S'0xdd'
p857
sS'low_fuses'
p858
S'0xc6'
p859
sS'lock_bits'
p860
S'0x0F'
p861
sS'file'
p862
S'ATmegaBOOT_168_pro_8MHz.hex'
p863
sS'path'
p864
S'atmega'
p865
sS'unlock_bits'
p866
S'0x3F'
p867
ssS'upload'
p868
(dp869
S'protocol'
p870
S'arduino'
p871
sS'maximum_size'
p872
S'14336'
p873
sS'speed'
p874
S'19200'
p875
ssS'build'
p876
(dp877
S'core'
p878
S'arduino'
p879
sS'mcu'
p880
S'atmega168'
p881
sS'f_cpu'
p882
S'8000000L'
p883
sS'variant'
p884
S'standard'
p885
ssS'name'
p886
S'Arduino Pro or Pro Mini (3.3V, 8 MHz) w/ ATmega168'
p887
saa(lp888
S'atmega168'
p889
a(dp890
S'bootloader'
p891
(dp892
S'extended_fuses'
p893
S'0x00'
p894
sS'high_fuses'
p895
S'0xdd'
p896
sS'low_fuses'
p897
S'0xff'
p898
sS'lock_bits'
p899
S'0x0F'
p900
sS'file'
p901
S'ATmegaBOOT_168_ng.hex'
p902
sS'path'
p903
S'atmega'
p904
sS'unlock_bits'
p905
S'0x3F'
p906
ssS'upload'
p907
(dp908
S'protocol'
p909
S'arduino'
p910
sS'maximum_size'
p911
S'14336'
p912
sS'speed'
p913
S'19200'
p914
ssS'build'
p915
(dp916
S'core'
p917
S'arduino'
p918
sS'mcu'
p919
S'atmega168'
p920
sS'f_cpu'
p921
S'16000000L'
p922
sS'variant'
p923
S'standard'
p924
ssS'name'
p925
S'Arduino NG or older w/ ATmega168'
p926
saa(lp927
S'atmega8'
p928
a(dp929
S'bootloader'
p930
(dp931
S'high_fuses'
p932
S'0xca'
p933
sS'low_fuses'
p934
S'0xdf'
p935
sS'lock_bits'
p936
S'0x0F'
p937
sS'file'
p938
S'ATmegaBOOT.hex'
p939
sS'path'
p940
S'atmega8'
p941
sS'unlock_bits'
p942
S'0x3F'
p943
ssS'upload'
p944
(dp945
S'protocol'
p946
S'arduino'
p947
sS'maximum_size'
p948
S'7168'
p949
sS'speed'
p950
S'19200'
p951
ssS'build'
p952
(dp953
S'core'
p954
S'arduino'
p955
sS'mcu'
p956
S'atmega8'
p957
sS'f_cpu'
p958
S'16000000L'
p959
sS'variant'
p960
S'standard'
p961
ssS'name'
p962
S'Arduino NG or older w/ ATmega8'
p963
saatp964
Rp965
(dp966
S'default'
p967
S'uno'
p968
sbtp969
a(S'cxx'
p970
S'/usr/lib64/ccache/avr-g++'
p971
tp972
a.